; Function Attrs: nounwind uwtable
define i32 @pmix20_bfrop_unpack_double(ptr noundef %0, ptr noundef %1, ptr noundef writeonly captures(none) %2, ptr noundef readonly captures(none) %3, i16 noundef zeroext %4) local_unnamed_addr #0 {
  %6 = alloca i32, align 4
  %7 = alloca ptr, align 8
  call void @llvm.lifetime.start.p0(i64 4, ptr nonnull %6) #10
  call void @llvm.lifetime.start.p0(i64 8, ptr nonnull %7) #10
  %8 = load i32, ptr getelementptr inbounds nuw (i8, ptr @pmix_bfrops_base_framework, i64 76), align 4, !tbaa !7
  %or.cond = icmp ult i32 %8, 64
  br i1 %or.cond, label %9, label %16

9:                                                ; preds = %5
  %10 = zext nneg i32 %8 to i64
  %11 = getelementptr inbounds nuw [0 x %struct.pmix_output_desc_t], ptr @pmix_output_info, i64 0, i64 %10, i32 2
  %12 = load i32, ptr %11, align 4, !tbaa !19
  %13 = icmp sgt i32 %12, 19
  br i1 %13, label %14, label %16

14:                                               ; preds = %9
  %15 = load i32, ptr %3, align 4, !tbaa !3
  tail call void (i32, ptr, ...) @pmix_output(i32 noundef %8, ptr noundef nonnull @.str.10, i32 noundef %15) #10
  br label %16

16:                                               ; preds = %14, %9, %5
  %17 = load i32, ptr %3, align 4, !tbaa !3
  %18 = sext i32 %17 to i64
  %19 = shl nsw i64 %18, 3
  %20 = tail call zeroext i1 @pmix_bfrop_too_small(ptr noundef %1, i64 noundef %19) #10
  br i1 %20, label %.thread, label %.preheader

.preheader:                                       ; preds = %16
  %21 = getelementptr inbounds nuw i8, ptr %0, i64 152
  %22 = load i32, ptr %3, align 4, !tbaa !3
  %23 = icmp sgt i32 %22, 0
  br i1 %23, label %.lr.ph, label %.thread

.lr.ph:                                           ; preds = %.preheader
  %24 = getelementptr inbounds nuw i8, ptr %0, i64 128
  br label %25

25:                                               ; preds = %.lr.ph, %41
  %indvars.iv = phi i64 [ 0, %.lr.ph ], [ %indvars.iv.next, %41 ]
  store i32 1, ptr %6, align 4, !tbaa !3
  store ptr null, ptr %7, align 8, !tbaa !63
  %26 = load i32, ptr %24, align 8, !tbaa !26
  %.not.i = icmp sgt i32 %26, 3
  br i1 %.not.i, label %pmix_pointer_array_get_item.exit, label %.thread, !prof !29

pmix_pointer_array_get_item.exit:                 ; preds = %25
  %27 = load ptr, ptr %21, align 8, !tbaa !30
  %28 = getelementptr inbounds nuw i8, ptr %27, i64 24
  %29 = load ptr, ptr %28, align 8, !tbaa !31
  %30 = icmp eq ptr %29, null
  br i1 %30, label %.thread, label %31

31:                                               ; preds = %pmix_pointer_array_get_item.exit
  %32 = getelementptr inbounds nuw i8, ptr %29, i64 144
  %33 = load ptr, ptr %32, align 8, !tbaa !32
  %34 = call i32 %33(ptr noundef nonnull %0, ptr noundef %1, ptr noundef nonnull %7, ptr noundef nonnull %6, i16 noundef zeroext 3) #10
  %.not = icmp eq i32 %34, 0
  br i1 %.not, label %35, label %.thread

35:                                               ; preds = %31
  %36 = load ptr, ptr %7, align 8, !tbaa !63
  %.not22 = icmp eq ptr %36, null
  br i1 %.not22, label %41, label %37

37:                                               ; preds = %35
  %38 = call double @strtod(ptr noundef nonnull captures(none) %36, ptr noundef null) #10
  %39 = getelementptr inbounds nuw double, ptr %2, i64 %indvars.iv
  store double %38, ptr %39, align 8
  %40 = load ptr, ptr %7, align 8, !tbaa !63
  call void @free(ptr noundef %40) #10
  br label %41

41:                                               ; preds = %35, %37
  %indvars.iv.next = add nuw nsw i64 %indvars.iv, 1
  %42 = load i32, ptr %3, align 4, !tbaa !3
  %43 = sext i32 %42 to i64
  %44 = icmp slt i64 %indvars.iv.next, %43
  br i1 %44, label %25, label %.thread, !llvm.loop !66

.thread:                                          ; preds = %31, %41, %pmix_pointer_array_get_item.exit, %25, %.preheader, %16
  %.0 = phi i32 [ -50, %16 ], [ 0, %.preheader ], [ %34, %31 ], [ 0, %41 ], [ -16, %pmix_pointer_array_get_item.exit ], [ -16, %25 ]
  call void @llvm.lifetime.end.p0(i64 8, ptr nonnull %7) #10
  call void @llvm.lifetime.end.p0(i64 4, ptr nonnull %6) #10
  ret i32 %.0
}